target datalayout = "e-m:e-p270:32:32-p271:32:32-p272:64:64-i64:64-i128:128-f80:128-n8:16:32:64-S128"
target triple = "x86_64-pc-linux-gnu"

%union.anon = type { %struct.anon.0 }
%struct.anon.0 = type { ptr, i64, i32 }
%struct.object_info = type { ptr, ptr, ptr, ptr, ptr, ptr, i32, %union.anon }

; Function Attrs: nounwind uwtable
define dso_local ptr @repo_read_object_file(ptr noundef %0, ptr noundef %1, ptr noundef %2, ptr noundef %3) #0 {
  %5 = alloca ptr, align 8
  %6 = alloca ptr, align 8
  %7 = alloca ptr, align 8
  %8 = alloca ptr, align 8
  %9 = alloca ptr, align 8
  %10 = alloca %struct.object_info, align 8
  %11 = alloca i32, align 4
  %12 = alloca ptr, align 8
  %13 = alloca i32, align 4
  store ptr %0, ptr %6, align 8, !tbaa !19
  store ptr %1, ptr %7, align 8, !tbaa !14
  store ptr %2, ptr %8, align 8, !tbaa !9
  store ptr %3, ptr %9, align 8, !tbaa !111
  call void @llvm.lifetime.start.p0(i64 80, ptr %10) #14
  call void @llvm.memset.p0.i64(ptr align 8 %10, i8 0, i64 80, i1 false)
  call void @llvm.lifetime.start.p0(i64 4, ptr %11) #14
  store i32 33, ptr %11, align 4, !tbaa !43
  call void @llvm.lifetime.start.p0(i64 8, ptr %12) #14
  %14 = load ptr, ptr %8, align 8, !tbaa !9
  %15 = getelementptr inbounds nuw %struct.object_info, ptr %10, i32 0, i32 0
  store ptr %14, ptr %15, align 8, !tbaa !130
  %16 = load ptr, ptr %9, align 8, !tbaa !111
  %17 = getelementptr inbounds nuw %struct.object_info, ptr %10, i32 0, i32 1
  store ptr %16, ptr %17, align 8, !tbaa !131
  %18 = getelementptr inbounds nuw %struct.object_info, ptr %10, i32 0, i32 5
  store ptr %12, ptr %18, align 8, !tbaa !134
  %19 = load ptr, ptr %6, align 8, !tbaa !19
  %20 = load ptr, ptr %7, align 8, !tbaa !14
  %21 = load i32, ptr %11, align 4, !tbaa !43
  %22 = call i32 @oid_object_info_extended(ptr noundef %19, ptr noundef %20, ptr noundef %10, i32 noundef %21)
  %23 = icmp ne i32 %22, 0
  br i1 %23, label %24, label %25

24:                                               ; preds = %4
  store ptr null, ptr %5, align 8
  store i32 1, ptr %13, align 4
  br label %27

25:                                               ; preds = %4
  %26 = load ptr, ptr %12, align 8, !tbaa !9
  store ptr %26, ptr %5, align 8
  store i32 1, ptr %13, align 4
  br label %27

27:                                               ; preds = %25, %24
  call void @llvm.lifetime.end.p0(i64 8, ptr %12) #14
  call void @llvm.lifetime.end.p0(i64 4, ptr %11) #14
  call void @llvm.lifetime.end.p0(i64 80, ptr %10) #14
  %28 = load ptr, ptr %5, align 8
  ret ptr %28
}