; Function Attrs: nounwind uwtable
define dso_local ptr @repo_read_object_file(ptr noundef %0, ptr noundef %1, ptr noundef %2, ptr noundef %3) local_unnamed_addr #1 {
  %5 = alloca %struct.object_info, align 8
  %6 = alloca ptr, align 8
  call void @llvm.lifetime.start.p0(i64 80, ptr nonnull %5) #27
  %7 = getelementptr inbounds nuw i8, ptr %5, i64 16
  call void @llvm.memset.p0.i64(ptr noundef nonnull align 8 dereferenceable(80) %7, i8 0, i64 64, i1 false)
  call void @llvm.lifetime.start.p0(i64 8, ptr nonnull %6) #27
  store ptr %2, ptr %5, align 8, !tbaa !116
  %8 = getelementptr inbounds nuw i8, ptr %5, i64 8
  store ptr %3, ptr %8, align 8, !tbaa !117
  %9 = getelementptr inbounds nuw i8, ptr %5, i64 40
  store ptr %6, ptr %9, align 8, !tbaa !120
  %10 = call i32 @oid_object_info_extended(ptr noundef %0, ptr noundef %1, ptr noundef nonnull %5, i32 noundef 33)
  %.not = icmp eq i32 %10, 0
  %11 = load ptr, ptr %6, align 8
  %.0 = select i1 %.not, ptr %11, ptr null
  call void @llvm.lifetime.end.p0(i64 8, ptr nonnull %6) #27
  call void @llvm.lifetime.end.p0(i64 80, ptr nonnull %5) #27
  ret ptr %.0
}